; Function Attrs: mustprogress uwtable
define noundef zeroext i1 @_ZN7rocksdb13InternalStats23HandleBlobCacheCapacityEPmPNS_6DBImplEPNS_7VersionE(ptr nocapture noundef nonnull readonly align 8 dereferenceable(1944) %this, ptr nocapture noundef writeonly %value, ptr nocapture readnone %0, ptr nocapture readnone %1) #4 align 2 {
entry:
  %cfd_.i = getelementptr inbounds i8, ptr %this, i64 1928
  %2 = load ptr, ptr %cfd_.i, align 8
  %blob_cache.i = getelementptr inbounds i8, ptr %2, i64 1768
  %3 = load ptr, ptr %blob_cache.i, align 8
  %tobool.not = icmp ne ptr %3, null
  br i1 %tobool.not, label %if.then, label %return

if.then:                                          ; preds = %entry
  %vtable = load ptr, ptr %3, align 8
  %vfn = getelementptr inbounds i8, ptr %vtable, i64 112
  %4 = load ptr, ptr %vfn, align 8
  %call3 = tail call noundef i64 %4(ptr noundef nonnull align 8 dereferenceable(56) %3)
  store i64 %call3, ptr %value, align 8
  br label %return

return:                                           ; preds = %entry, %if.then
  ret i1 %tobool.not
}